target datalayout = "e-m:e-p270:32:32-p271:32:32-p272:64:64-i64:64-i128:128-f80:128-n8:16:32:64-S128"
target triple = "x86_64-pc-linux-gnu"

%"class.std::basic_ostream" = type { ptr, %"class.std::basic_ios" }
%"class.std::basic_ios" = type { %"class.std::ios_base", ptr, i8, i8, ptr, ptr, ptr, ptr }
%"class.std::ios_base" = type { ptr, i64, i64, i32, i32, i32, ptr, %"struct.std::ios_base::_Words", [8 x %"struct.std::ios_base::_Words"], i32, ptr, %"class.std::locale" }
%"struct.std::ios_base::_Words" = type { ptr, i64 }
%"class.std::locale" = type { ptr }
%class.cache_sim_t = type <{ ptr, %class.lfsr_t, [4 x i8], ptr, i64, i64, i64, i64, ptr, i64, i64, i64, i64, i64, i64, i64, %"class.std::__cxx11::basic_string", i8, [7 x i8] }>
%class.lfsr_t = type { i32 }
%"class.std::__cxx11::basic_string" = type { %"struct.std::__cxx11::basic_string<char>::_Alloc_hider", i64, %union.anon }
%"struct.std::__cxx11::basic_string<char>::_Alloc_hider" = type { ptr }
%union.anon = type { i64, [8 x i8] }

@.str = private unnamed_addr constant [2 x i8] c" \00", align 1
@_ZSt4cerr = external global %"class.std::basic_ostream", align 8
@.str.9 = private unnamed_addr constant [6 x i8] c"write\00", align 1
@.str.10 = private unnamed_addr constant [5 x i8] c"read\00", align 1
@.str.11 = private unnamed_addr constant [9 x i8] c" miss 0x\00", align 1

; Function Attrs: mustprogress uwtable
define void @_ZN11cache_sim_t6accessEmmb(ptr noundef nonnull align 8 dereferenceable(153) %0, i64 noundef %1, i64 noundef %2, i1 noundef zeroext %3) #4 align 2 {
  %5 = alloca ptr, align 8
  %6 = alloca i64, align 8
  %7 = alloca i64, align 8
  %8 = alloca i8, align 1
  %9 = alloca ptr, align 8
  %10 = alloca i64, align 8
  %11 = alloca i64, align 8
  store ptr %0, ptr %5, align 8
  store i64 %1, ptr %6, align 8
  store i64 %2, ptr %7, align 8
  %12 = zext i1 %3 to i8
  store i8 %12, ptr %8, align 1
  %13 = load ptr, ptr %5, align 8
  %14 = load i8, ptr %8, align 1
  %15 = trunc i8 %14 to i1
  br i1 %15, label %16, label %20

16:                                               ; preds = %4
  %17 = getelementptr inbounds %class.cache_sim_t, ptr %13, i32 0, i32 12
  %18 = load i64, ptr %17, align 8
  %19 = add i64 %18, 1
  store i64 %19, ptr %17, align 8
  br label %24

20:                                               ; preds = %4
  %21 = getelementptr inbounds %class.cache_sim_t, ptr %13, i32 0, i32 9
  %22 = load i64, ptr %21, align 8
  %23 = add i64 %22, 1
  store i64 %23, ptr %21, align 8
  br label %24

24:                                               ; preds = %20, %16
  %25 = load i64, ptr %7, align 8
  %26 = load i8, ptr %8, align 1
  %27 = trunc i8 %26 to i1
  br i1 %27, label %28, label %30

28:                                               ; preds = %24
  %29 = getelementptr inbounds %class.cache_sim_t, ptr %13, i32 0, i32 14
  br label %32

30:                                               ; preds = %24
  %31 = getelementptr inbounds %class.cache_sim_t, ptr %13, i32 0, i32 11
  br label %32

32:                                               ; preds = %30, %28
  %33 = phi ptr [ %29, %28 ], [ %31, %30 ]
  %34 = load i64, ptr %33, align 8
  %35 = add i64 %34, %25
  store i64 %35, ptr %33, align 8
  %36 = load i64, ptr %6, align 8
  %37 = load ptr, ptr %13, align 8
  %38 = getelementptr inbounds ptr, ptr %37, i64 2
  %39 = load ptr, ptr %38, align 8
  %40 = call noundef ptr %39(ptr noundef nonnull align 8 dereferenceable(153) %13, i64 noundef %36)
  store ptr %40, ptr %9, align 8
  %41 = load ptr, ptr %9, align 8
  %42 = icmp ne ptr %41, null
  br i1 %42, label %43, label %51

43:                                               ; preds = %32
  %44 = load i8, ptr %8, align 1
  %45 = trunc i8 %44 to i1
  br i1 %45, label %46, label %50

46:                                               ; preds = %43
  %47 = load ptr, ptr %9, align 8
  %48 = load i64, ptr %47, align 8
  %49 = or i64 %48, 4611686018427387904
  store i64 %49, ptr %47, align 8
  br label %50

50:                                               ; preds = %46, %43
  br label %133

51:                                               ; preds = %32
  %52 = load i8, ptr %8, align 1
  %53 = trunc i8 %52 to i1
  br i1 %53, label %54, label %58

54:                                               ; preds = %51
  %55 = getelementptr inbounds %class.cache_sim_t, ptr %13, i32 0, i32 13
  %56 = load i64, ptr %55, align 8
  %57 = add i64 %56, 1
  store i64 %57, ptr %55, align 8
  br label %62

58:                                               ; preds = %51
  %59 = getelementptr inbounds %class.cache_sim_t, ptr %13, i32 0, i32 10
  %60 = load i64, ptr %59, align 8
  %61 = add i64 %60, 1
  store i64 %61, ptr %59, align 8
  br label %62

62:                                               ; preds = %58, %54
  %63 = getelementptr inbounds %class.cache_sim_t, ptr %13, i32 0, i32 17
  %64 = load i8, ptr %63, align 8
  %65 = trunc i8 %64 to i1
  br i1 %65, label %66, label %79

66:                                               ; preds = %62
  %67 = getelementptr inbounds %class.cache_sim_t, ptr %13, i32 0, i32 16
  %68 = call noundef nonnull align 8 dereferenceable(8) ptr @_ZStlsIcSt11char_traitsIcESaIcEERSt13basic_ostreamIT_T0_ES7_RKNSt7__cxx1112basic_stringIS4_S5_T1_EE(ptr noundef nonnull align 8 dereferenceable(8) @_ZSt4cerr, ptr noundef nonnull align 8 dereferenceable(32) %67)
  %69 = call noundef nonnull align 8 dereferenceable(8) ptr @_ZStlsISt11char_traitsIcEERSt13basic_ostreamIcT_ES5_PKc(ptr noundef nonnull align 8 dereferenceable(8) %68, ptr noundef @.str)
  %70 = load i8, ptr %8, align 1
  %71 = trunc i8 %70 to i1
  %72 = select i1 %71, ptr @.str.9, ptr @.str.10
  %73 = call noundef nonnull align 8 dereferenceable(8) ptr @_ZStlsISt11char_traitsIcEERSt13basic_ostreamIcT_ES5_PKc(ptr noundef nonnull align 8 dereferenceable(8) %69, ptr noundef %72)
  %74 = call noundef nonnull align 8 dereferenceable(8) ptr @_ZStlsISt11char_traitsIcEERSt13basic_ostreamIcT_ES5_PKc(ptr noundef nonnull align 8 dereferenceable(8) %73, ptr noundef @.str.11)
  %75 = call noundef nonnull align 8 dereferenceable(8) ptr @_ZNSolsEPFRSt8ios_baseS0_E(ptr noundef nonnull align 8 dereferenceable(8) %74, ptr noundef @_ZSt3hexRSt8ios_base)
  %76 = load i64, ptr %6, align 8
  %77 = call noundef nonnull align 8 dereferenceable(8) ptr @_ZNSolsEm(ptr noundef nonnull align 8 dereferenceable(8) %75, i64 noundef %76)
  %78 = call noundef nonnull align 8 dereferenceable(8) ptr @_ZNSolsEPFRSoS_E(ptr noundef nonnull align 8 dereferenceable(8) %77, ptr noundef @_ZSt4endlIcSt11char_traitsIcEERSt13basic_ostreamIT_T0_ES6_)
  br label %79

79:                                               ; preds = %66, %62
  %80 = load i64, ptr %6, align 8
  %81 = load ptr, ptr %13, align 8
  %82 = getelementptr inbounds ptr, ptr %81, i64 3
  %83 = load ptr, ptr %82, align 8
  %84 = call noundef i64 %83(ptr noundef nonnull align 8 dereferenceable(153) %13, i64 noundef %80)
  store i64 %84, ptr %10, align 8
  %85 = load i64, ptr %10, align 8
  %86 = and i64 %85, -4611686018427387904
  %87 = icmp eq i64 %86, -4611686018427387904
  br i1 %87, label %88, label %107

88:                                               ; preds = %79
  %89 = load i64, ptr %10, align 8
  %90 = and i64 %89, 4611686018427387903
  %91 = getelementptr inbounds %class.cache_sim_t, ptr %13, i32 0, i32 7
  %92 = load i64, ptr %91, align 8
  %93 = shl i64 %90, %92
  store i64 %93, ptr %11, align 8
  %94 = getelementptr inbounds %class.cache_sim_t, ptr %13, i32 0, i32 3
  %95 = load ptr, ptr %94, align 8
  %96 = icmp ne ptr %95, null
  br i1 %96, label %97, label %103

97:                                               ; preds = %88
  %98 = getelementptr inbounds %class.cache_sim_t, ptr %13, i32 0, i32 3
  %99 = load ptr, ptr %98, align 8
  %100 = load i64, ptr %11, align 8
  %101 = getelementptr inbounds %class.cache_sim_t, ptr %13, i32 0, i32 6
  %102 = load i64, ptr %101, align 8
  call void @_ZN11cache_sim_t6accessEmmb(ptr noundef nonnull align 8 dereferenceable(153) %99, i64 noundef %100, i64 noundef %102, i1 noundef zeroext true)
  br label %103

103:                                              ; preds = %97, %88
  %104 = getelementptr inbounds %class.cache_sim_t, ptr %13, i32 0, i32 15
  %105 = load i64, ptr %104, align 8
  %106 = add i64 %105, 1
  store i64 %106, ptr %104, align 8
  br label %107

107:                                              ; preds = %103, %79
  %108 = getelementptr inbounds %class.cache_sim_t, ptr %13, i32 0, i32 3
  %109 = load ptr, ptr %108, align 8
  %110 = icmp ne ptr %109, null
  br i1 %110, label %111, label %122

111:                                              ; preds = %107
  %112 = getelementptr inbounds %class.cache_sim_t, ptr %13, i32 0, i32 3
  %113 = load ptr, ptr %112, align 8
  %114 = load i64, ptr %6, align 8
  %115 = getelementptr inbounds %class.cache_sim_t, ptr %13, i32 0, i32 6
  %116 = load i64, ptr %115, align 8
  %117 = sub i64 %116, 1
  %118 = xor i64 %117, -1
  %119 = and i64 %114, %118
  %120 = getelementptr inbounds %class.cache_sim_t, ptr %13, i32 0, i32 6
  %121 = load i64, ptr %120, align 8
  call void @_ZN11cache_sim_t6accessEmmb(ptr noundef nonnull align 8 dereferenceable(153) %113, i64 noundef %119, i64 noundef %121, i1 noundef zeroext false)
  br label %122

122:                                              ; preds = %111, %107
  %123 = load i8, ptr %8, align 1
  %124 = trunc i8 %123 to i1
  br i1 %124, label %125, label %133

125:                                              ; preds = %122
  %126 = load i64, ptr %6, align 8
  %127 = load ptr, ptr %13, align 8
  %128 = getelementptr inbounds ptr, ptr %127, i64 2
  %129 = load ptr, ptr %128, align 8
  %130 = call noundef ptr %129(ptr noundef nonnull align 8 dereferenceable(153) %13, i64 noundef %126)
  %131 = load i64, ptr %130, align 8
  %132 = or i64 %131, 4611686018427387904
  store i64 %132, ptr %130, align 8
  br label %133

133:                                              ; preds = %125, %122, %50
  ret void
}