; Function Attrs: mustprogress uwtable
define void @_ZN11cache_sim_t6accessEmmb(ptr noundef nonnull align 8 dereferenceable(153) %0, i64 noundef %1, i64 noundef %2, i1 noundef zeroext %3) local_unnamed_addr #3 align 2 {
  %. = select i1 %3, i64 88, i64 64
  %.33 = select i1 %3, i64 104, i64 80
  %5 = getelementptr inbounds i8, ptr %0, i64 %.
  %6 = load i64, ptr %5, align 8
  %7 = add i64 %6, 1
  store i64 %7, ptr %5, align 8
  %8 = getelementptr inbounds i8, ptr %0, i64 %.33
  %9 = load i64, ptr %8, align 8
  %10 = add i64 %9, %2
  store i64 %10, ptr %8, align 8
  %11 = load ptr, ptr %0, align 8
  %12 = getelementptr inbounds i8, ptr %11, i64 16
  %13 = load ptr, ptr %12, align 8
  %14 = tail call noundef ptr %13(ptr noundef nonnull align 8 dereferenceable(153) %0, i64 noundef %1)
  %.not = icmp eq ptr %14, null
  br i1 %.not, label %16, label %15

15:                                               ; preds = %4
  br i1 %3, label %.sink.split, label %69

16:                                               ; preds = %4
  %.34 = select i1 %3, i64 96, i64 72
  %17 = getelementptr inbounds i8, ptr %0, i64 %.34
  %18 = load i64, ptr %17, align 8
  %19 = add i64 %18, 1
  store i64 %19, ptr %17, align 8
  %20 = getelementptr inbounds i8, ptr %0, i64 152
  %21 = load i8, ptr %20, align 8
  %22 = and i8 %21, 1
  %.not19 = icmp eq i8 %22, 0
  br i1 %.not19, label %33, label %23

23:                                               ; preds = %16
  %24 = getelementptr inbounds i8, ptr %0, i64 120
  %25 = tail call noundef nonnull align 8 dereferenceable(8) ptr @_ZStlsIcSt11char_traitsIcESaIcEERSt13basic_ostreamIT_T0_ES7_RKNSt7__cxx1112basic_stringIS4_S5_T1_EE(ptr noundef nonnull align 8 dereferenceable(8) @_ZSt4cerr, ptr noundef nonnull align 8 dereferenceable(32) %24)
  %26 = tail call noundef nonnull align 8 dereferenceable(8) ptr @_ZStlsISt11char_traitsIcEERSt13basic_ostreamIcT_ES5_PKc(ptr noundef nonnull align 8 dereferenceable(8) %25, ptr noundef nonnull @.str)
  %27 = select i1 %3, ptr @.str.9, ptr @.str.10
  %28 = tail call noundef nonnull align 8 dereferenceable(8) ptr @_ZStlsISt11char_traitsIcEERSt13basic_ostreamIcT_ES5_PKc(ptr noundef nonnull align 8 dereferenceable(8) %26, ptr noundef nonnull %27)
  %29 = tail call noundef nonnull align 8 dereferenceable(8) ptr @_ZStlsISt11char_traitsIcEERSt13basic_ostreamIcT_ES5_PKc(ptr noundef nonnull align 8 dereferenceable(8) %28, ptr noundef nonnull @.str.11)
  %30 = tail call noundef nonnull align 8 dereferenceable(8) ptr @_ZNSolsEPFRSt8ios_baseS0_E(ptr noundef nonnull align 8 dereferenceable(8) %29, ptr noundef nonnull @_ZSt3hexRSt8ios_base)
  %31 = tail call noundef nonnull align 8 dereferenceable(8) ptr @_ZNSolsEm(ptr noundef nonnull align 8 dereferenceable(8) %30, i64 noundef %1)
  %32 = tail call noundef nonnull align 8 dereferenceable(8) ptr @_ZNSolsEPFRSoS_E(ptr noundef nonnull align 8 dereferenceable(8) %31, ptr noundef nonnull @_ZSt4endlIcSt11char_traitsIcEERSt13basic_ostreamIT_T0_ES6_)
  br label %33

33:                                               ; preds = %23, %16
  %34 = load ptr, ptr %0, align 8
  %35 = getelementptr inbounds i8, ptr %34, i64 24
  %36 = load ptr, ptr %35, align 8
  %37 = tail call noundef i64 %36(ptr noundef nonnull align 8 dereferenceable(153) %0, i64 noundef %1)
  %38 = icmp ugt i64 %37, -4611686018427387905
  br i1 %38, label %39, label %53

39:                                               ; preds = %33
  %40 = getelementptr inbounds i8, ptr %0, i64 16
  %41 = load ptr, ptr %40, align 8
  %.not20 = icmp eq ptr %41, null
  br i1 %.not20, label %49, label %42

42:                                               ; preds = %39
  %43 = and i64 %37, 4611686018427387903
  %44 = getelementptr inbounds i8, ptr %0, i64 48
  %45 = load i64, ptr %44, align 8
  %46 = shl i64 %43, %45
  %47 = getelementptr inbounds i8, ptr %0, i64 40
  %48 = load i64, ptr %47, align 8
  tail call void @_ZN11cache_sim_t6accessEmmb(ptr noundef nonnull align 8 dereferenceable(153) %41, i64 noundef %46, i64 noundef %48, i1 noundef zeroext true)
  br label %49

49:                                               ; preds = %42, %39
  %50 = getelementptr inbounds i8, ptr %0, i64 112
  %51 = load i64, ptr %50, align 8
  %52 = add i64 %51, 1
  store i64 %52, ptr %50, align 8
  br label %53

53:                                               ; preds = %49, %33
  %54 = getelementptr inbounds i8, ptr %0, i64 16
  %55 = load ptr, ptr %54, align 8
  %.not21 = icmp eq ptr %55, null
  br i1 %.not21, label %61, label %56

56:                                               ; preds = %53
  %57 = getelementptr inbounds i8, ptr %0, i64 40
  %58 = load i64, ptr %57, align 8
  %59 = sub i64 0, %58
  %60 = and i64 %59, %1
  tail call void @_ZN11cache_sim_t6accessEmmb(ptr noundef nonnull align 8 dereferenceable(153) %55, i64 noundef %60, i64 noundef %58, i1 noundef zeroext false)
  br label %61

61:                                               ; preds = %56, %53
  br i1 %3, label %62, label %69

62:                                               ; preds = %61
  %63 = load ptr, ptr %0, align 8
  %64 = getelementptr inbounds i8, ptr %63, i64 16
  %65 = load ptr, ptr %64, align 8
  %66 = tail call noundef ptr %65(ptr noundef nonnull align 8 dereferenceable(153) %0, i64 noundef %1)
  br label %.sink.split

.sink.split:                                      ; preds = %15, %62
  %.sink31 = phi ptr [ %66, %62 ], [ %14, %15 ]
  %67 = load i64, ptr %.sink31, align 8
  %68 = or i64 %67, 4611686018427387904
  store i64 %68, ptr %.sink31, align 8
  br label %69

69:                                               ; preds = %.sink.split, %15, %61
  ret void
}